target datalayout = "e-m:e-p270:32:32-p271:32:32-p272:64:64-i64:64-i128:128-f80:128-n8:16:32:64-S128"
target triple = "x86_64-pc-linux-gnu"

%struct.TS_resp_ctx = type { ptr, ptr, ptr, ptr, ptr, ptr, ptr, ptr, ptr, ptr, ptr, i32, i32, ptr, ptr, ptr, ptr, ptr, ptr, ptr, ptr, ptr, ptr, ptr }

@.str = private unnamed_addr constant [35 x i8] c"../openssl/crypto/ts/ts_rsp_sign.c\00", align 1
@__func__.TS_RESP_CTX_add_md = private unnamed_addr constant [19 x i8] c"TS_RESP_CTX_add_md\00", align 1

; Function Attrs: inlinehint nounwind uwtable
define internal i32 @sk_EVP_MD_push(ptr noundef %0, ptr noundef %1) #3 {
  %3 = alloca ptr, align 8
  %4 = alloca ptr, align 8
  store ptr %0, ptr %3, align 8, !tbaa !53
  store ptr %1, ptr %4, align 8, !tbaa !56
  %5 = load ptr, ptr %3, align 8, !tbaa !53
  %6 = load ptr, ptr %4, align 8, !tbaa !56
  %7 = call i32 @OPENSSL_sk_push(ptr noundef %5, ptr noundef %6)
  ret i32 %7
}

; Function Attrs: inlinehint nounwind uwtable
define internal ptr @sk_EVP_MD_new_null() #3 {
  %1 = call ptr @OPENSSL_sk_new_null()
  ret ptr %1
}

; Function Attrs: nounwind uwtable
define i32 @TS_RESP_CTX_add_md(ptr noundef %0, ptr noundef %1) #0 {
  %3 = alloca i32, align 4
  %4 = alloca ptr, align 8
  %5 = alloca ptr, align 8
  store ptr %0, ptr %4, align 8, !tbaa !10
  store ptr %1, ptr %5, align 8, !tbaa !56
  %6 = load ptr, ptr %4, align 8, !tbaa !10
  %7 = getelementptr inbounds nuw %struct.TS_resp_ctx, ptr %6, i32 0, i32 7
  %8 = load ptr, ptr %7, align 8, !tbaa !48
  %9 = icmp eq ptr %8, null
  br i1 %9, label %10, label %16

10:                                               ; preds = %2
  %11 = call ptr @sk_EVP_MD_new_null()
  %12 = load ptr, ptr %4, align 8, !tbaa !10
  %13 = getelementptr inbounds nuw %struct.TS_resp_ctx, ptr %12, i32 0, i32 7
  store ptr %11, ptr %13, align 8, !tbaa !48
  %14 = icmp eq ptr %11, null
  br i1 %14, label %15, label %16

15:                                               ; preds = %10
  br label %25

16:                                               ; preds = %10, %2
  %17 = load ptr, ptr %4, align 8, !tbaa !10
  %18 = getelementptr inbounds nuw %struct.TS_resp_ctx, ptr %17, i32 0, i32 7
  %19 = load ptr, ptr %18, align 8, !tbaa !48
  %20 = load ptr, ptr %5, align 8, !tbaa !56
  %21 = call i32 @sk_EVP_MD_push(ptr noundef %19, ptr noundef %20)
  %22 = icmp ne i32 %21, 0
  br i1 %22, label %24, label %23

23:                                               ; preds = %16
  br label %25

24:                                               ; preds = %16
  store i32 1, ptr %3, align 4
  br label %26

25:                                               ; preds = %23, %15
  call void @ERR_new()
  call void @ERR_set_debug(ptr noundef @.str, i32 noundef 219, ptr noundef @__func__.TS_RESP_CTX_add_md)
  call void (i32, i32, ptr, ...) @ERR_set_error(i32 noundef 47, i32 noundef 524303, ptr noundef null)
  store i32 0, ptr %3, align 4
  br label %26

26:                                               ; preds = %25, %24
  %27 = load i32, ptr %3, align 4
  ret i32 %27
}