; Function Attrs: nounwind uwtable
define range(i32 0, 2) i32 @TS_RESP_CTX_add_md(ptr noundef captures(none) %0, ptr noundef %1) local_unnamed_addr #0 {
  %3 = getelementptr inbounds nuw i8, ptr %0, i64 56
  %4 = load ptr, ptr %3, align 8, !tbaa !41
  %5 = icmp eq ptr %4, null
  br i1 %5, label %6, label %9

6:                                                ; preds = %2
  %7 = tail call ptr @OPENSSL_sk_new_null() #9
  store ptr %7, ptr %3, align 8, !tbaa !41
  %8 = icmp eq ptr %7, null
  br i1 %8, label %12, label %9

9:                                                ; preds = %6, %2
  %10 = phi ptr [ %7, %6 ], [ %4, %2 ]
  %11 = tail call i32 @OPENSSL_sk_push(ptr noundef nonnull %10, ptr noundef %1) #9
  %.not = icmp eq i32 %11, 0
  br i1 %.not, label %12, label %13

12:                                               ; preds = %9, %6
  tail call void @ERR_new() #9
  tail call void @ERR_set_debug(ptr noundef nonnull @.str, i32 noundef 219, ptr noundef nonnull @__func__.TS_RESP_CTX_add_md) #9
  tail call void (i32, i32, ptr, ...) @ERR_set_error(i32 noundef 47, i32 noundef 524303, ptr noundef null) #9
  br label %13

13:                                               ; preds = %9, %12
  %.0 = phi i32 [ 0, %12 ], [ 1, %9 ]
  ret i32 %.0
}